libQt6Grpc.so.6:Qt_6
libQt6Grpc.so.6:Qt_6_PRIVATE_API
libQt6Grpc.so.6:_ZN11QGrpcStatusC1ENS_10StatusCodeERK7QString
libQt6Grpc.so.6:_ZN11QGrpcStatusC1EOS_
libQt6Grpc.so.6:_ZN11QGrpcStatusC1ERKS_
libQt6Grpc.so.6:_ZN11QGrpcStatusC2ENS_10StatusCodeERK7QString
libQt6Grpc.so.6:_ZN11QGrpcStatusC2EOS_
libQt6Grpc.so.6:_ZN11QGrpcStatusC2ERKS_
libQt6Grpc.so.6:_ZN11QGrpcStatusD1Ev
libQt6Grpc.so.6:_ZN11QGrpcStatusD2Ev
libQt6Grpc.so.6:_ZN11QGrpcStatusaSEOS_
libQt6Grpc.so.6:_ZN11QGrpcStatusaSERKS_
libQt6Grpc.so.6:_ZN11QGrpcStream10updateDataERK10QByteArray
libQt6Grpc.so.6:_ZN11QGrpcStream11qt_metacallEN11QMetaObject4CallEiPPv
libQt6Grpc.so.6:_ZN11QGrpcStream11qt_metacastEPKc
libQt6Grpc.so.6:_ZN11QGrpcStream15messageReceivedEv
libQt6Grpc.so.6:_ZN11QGrpcStream5abortEv
libQt6Grpc.so.6:_ZN11QGrpcStreamC1E13QLatin1String14QByteArrayViewSt10shared_ptrI27QAbstractProtobufSerializerE
libQt6Grpc.so.6:_ZN11QGrpcStreamC2E13QLatin1String14QByteArrayViewSt10shared_ptrI27QAbstractProtobufSerializerE
libQt6Grpc.so.6:_ZN11QGrpcStreamD0Ev
libQt6Grpc.so.6:_ZN11QGrpcStreamD1Ev
libQt6Grpc.so.6:_ZN11QGrpcStreamD2Ev
libQt6Grpc.so.6:_ZN14QGrpcCallReply11qt_metacallEN11QMetaObject4CallEiPPv
libQt6Grpc.so.6:_ZN14QGrpcCallReply11qt_metacastEPKc
libQt6Grpc.so.6:_ZN14QGrpcCallReply5abortEv
libQt6Grpc.so.6:_ZN14QGrpcCallReplyC1ESt10shared_ptrI27QAbstractProtobufSerializerE
libQt6Grpc.so.6:_ZN14QGrpcCallReplyC2ESt10shared_ptrI27QAbstractProtobufSerializerE
libQt6Grpc.so.6:_ZN14QGrpcCallReplyD0Ev
libQt6Grpc.so.6:_ZN14QGrpcCallReplyD1Ev
libQt6Grpc.so.6:_ZN14QGrpcCallReplyD2Ev
libQt6Grpc.so.6:_ZN14QGrpcOperation11qt_metacallEN11QMetaObject4CallEiPPv
libQt6Grpc.so.6:_ZN14QGrpcOperation11qt_metacastEPKc
libQt6Grpc.so.6:_ZN14QGrpcOperation11setMetadataEOSt18unordered_multimapI10QByteArrayS1_St4hashIS1_ESt8equal_toIS1_ESaISt4pairIKS1_S1_EEE
libQt6Grpc.so.6:_ZN14QGrpcOperation11setMetadataERKSt18unordered_multimapI10QByteArrayS1_St4hashIS1_ESt8equal_toIS1_ESaISt4pairIKS1_S1_EEE
libQt6Grpc.so.6:_ZN14QGrpcOperation13errorOccurredERK11QGrpcStatus
libQt6Grpc.so.6:_ZN14QGrpcOperation7setDataEO10QByteArray
libQt6Grpc.so.6:_ZN14QGrpcOperation7setDataERK10QByteArray
libQt6Grpc.so.6:_ZN14QGrpcOperation8finishedEv
libQt6Grpc.so.6:_ZN14QGrpcOperationC1ESt10shared_ptrI27QAbstractProtobufSerializerE
libQt6Grpc.so.6:_ZN14QGrpcOperationC2ESt10shared_ptrI27QAbstractProtobufSerializerE
libQt6Grpc.so.6:_ZN14QGrpcOperationD0Ev
libQt6Grpc.so.6:_ZN14QGrpcOperationD1Ev
libQt6Grpc.so.6:_ZN14QGrpcOperationD2Ev
libQt6Grpc.so.6:_ZN16QGrpcCallOptions12withDeadlineENSt6chrono8durationIlSt5ratioILl1ELl1000EEEE
libQt6Grpc.so.6:_ZN16QGrpcCallOptions12withMetadataERKSt18unordered_multimapI10QByteArrayS1_St4hashIS1_ESt8equal_toIS1_ESaISt4pairIKS1_S1_EEE
libQt6Grpc.so.6:_ZN16QGrpcCallOptions20withMaxRetryAttemptsEx
libQt6Grpc.so.6:_ZN16QGrpcCallOptionsC1ERKS_
libQt6Grpc.so.6:_ZN16QGrpcCallOptionsC1Ev
libQt6Grpc.so.6:_ZN16QGrpcCallOptionsC2ERKS_
libQt6Grpc.so.6:_ZN16QGrpcCallOptionsC2Ev
libQt6Grpc.so.6:_ZN16QGrpcCallOptionsD1Ev
libQt6Grpc.so.6:_ZN16QGrpcCallOptionsD2Ev
libQt6Grpc.so.6:_ZN16QGrpcCallOptionsaSERKS_
libQt6Grpc.so.6:_ZN17QGrpcHttp2Channel11startStreamE13QLatin1StringS0_14QByteArrayViewRK16QGrpcCallOptions
libQt6Grpc.so.6:_ZN17QGrpcHttp2Channel4callE13QLatin1StringS0_14QByteArrayViewR10QByteArrayRK16QGrpcCallOptions
libQt6Grpc.so.6:_ZN17QGrpcHttp2Channel4callE13QLatin1StringS0_14QByteArrayViewRK16QGrpcCallOptions
libQt6Grpc.so.6:_ZN17QGrpcHttp2ChannelC1ERK19QGrpcChannelOptions
libQt6Grpc.so.6:_ZN17QGrpcHttp2ChannelC2ERK19QGrpcChannelOptions
libQt6Grpc.so.6:_ZN17QGrpcHttp2ChannelD0Ev
libQt6Grpc.so.6:_ZN17QGrpcHttp2ChannelD1Ev
libQt6Grpc.so.6:_ZN17QGrpcHttp2ChannelD2Ev
libQt6Grpc.so.6:_ZN19QAbstractGrpcClient11qt_metacallEN11QMetaObject4CallEiPPv
libQt6Grpc.so.6:_ZN19QAbstractGrpcClient11qt_metacastEPKc
libQt6Grpc.so.6:_ZN19QAbstractGrpcClient11startStreamE13QLatin1String14QByteArrayViewRK16QGrpcCallOptions
libQt6Grpc.so.6:_ZN19QAbstractGrpcClient13attachChannelERKSt10shared_ptrI20QAbstractGrpcChannelE
libQt6Grpc.so.6:_ZN19QAbstractGrpcClient13errorOccurredERK11QGrpcStatus
libQt6Grpc.so.6:_ZN19QAbstractGrpcClient26handleDeserializationErrorERKN27QAbstractProtobufSerializer20DeserializationErrorE
libQt6Grpc.so.6:_ZN19QAbstractGrpcClient4callE13QLatin1String14QByteArrayViewR10QByteArrayRK16QGrpcCallOptions
libQt6Grpc.so.6:_ZN19QAbstractGrpcClient4callE13QLatin1String14QByteArrayViewRK16QGrpcCallOptions
libQt6Grpc.so.6:_ZN19QAbstractGrpcClientC1E13QLatin1StringP7QObject
libQt6Grpc.so.6:_ZN19QAbstractGrpcClientC2E13QLatin1StringP7QObject
libQt6Grpc.so.6:_ZN19QAbstractGrpcClientD0Ev
libQt6Grpc.so.6:_ZN19QAbstractGrpcClientD1Ev
libQt6Grpc.so.6:_ZN19QAbstractGrpcClientD2Ev
libQt6Grpc.so.6:_ZN19QGrpcChannelOptions12withDeadlineENSt6chrono8durationIlSt5ratioILl1ELl1000EEEE
libQt6Grpc.so.6:_ZN19QGrpcChannelOptions12withMetadataERKSt18unordered_multimapI10QByteArrayS1_St4hashIS1_ESt8equal_toIS1_ESaISt4pairIKS1_S1_EEE
libQt6Grpc.so.6:_ZN19QGrpcChannelOptions20withSslConfigurationERK17QSslConfiguration
libQt6Grpc.so.6:_ZN19QGrpcChannelOptions8withHostERK4QUrl
libQt6Grpc.so.6:_ZN19QGrpcChannelOptionsC1ERK4QUrl
libQt6Grpc.so.6:_ZN19QGrpcChannelOptionsC1ERKS_
libQt6Grpc.so.6:_ZN19QGrpcChannelOptionsC2ERK4QUrl
libQt6Grpc.so.6:_ZN19QGrpcChannelOptionsC2ERKS_
libQt6Grpc.so.6:_ZN19QGrpcChannelOptionsD1Ev
libQt6Grpc.so.6:_ZN19QGrpcChannelOptionsD2Ev
libQt6Grpc.so.6:_ZN19QGrpcChannelOptionsaSERKS_
libQt6Grpc.so.6:_ZN20QAbstractGrpcChannelC1Ev
libQt6Grpc.so.6:_ZN20QAbstractGrpcChannelC2Ev
libQt6Grpc.so.6:_ZN20QAbstractGrpcChannelD0Ev
libQt6Grpc.so.6:_ZN20QAbstractGrpcChannelD1Ev
libQt6Grpc.so.6:_ZN20QAbstractGrpcChannelD2Ev
libQt6Grpc.so.6:_ZNK11QGrpcStatus4codeEv
libQt6Grpc.so.6:_ZNK11QGrpcStatus7messageEv
libQt6Grpc.so.6:_ZNK11QGrpcStream10metaObjectEv
libQt6Grpc.so.6:_ZNK11QGrpcStream3argEv
libQt6Grpc.so.6:_ZNK11QGrpcStream6methodEv
libQt6Grpc.so.6:_ZNK14QGrpcCallReply10metaObjectEv
libQt6Grpc.so.6:_ZNK14QGrpcOperation10metaObjectEv
libQt6Grpc.so.6:_ZNK14QGrpcOperation10serializerEv
libQt6Grpc.so.6:_ZNK14QGrpcOperation4dataEv
libQt6Grpc.so.6:_ZNK14QGrpcOperation8metadataEv
libQt6Grpc.so.6:_ZNK16QGrpcCallOptions16maxRetryAttemptsEv
libQt6Grpc.so.6:_ZNK16QGrpcCallOptions8deadlineEv
libQt6Grpc.so.6:_ZNK16QGrpcCallOptions8metadataEv
libQt6Grpc.so.6:_ZNK17QGrpcHttp2Channel10serializerEv
libQt6Grpc.so.6:_ZNK19QAbstractGrpcClient10metaObjectEv
libQt6Grpc.so.6:_ZNK19QAbstractGrpcClient10serializerEv
libQt6Grpc.so.6:_ZNK19QGrpcChannelOptions16sslConfigurationEv
libQt6Grpc.so.6:_ZNK19QGrpcChannelOptions4hostEv
libQt6Grpc.so.6:_ZNK19QGrpcChannelOptions8deadlineEv
libQt6Grpc.so.6:_ZNK19QGrpcChannelOptions8metadataEv
libQt6Protobuf.so.6:Qt_6
libQt6Protobuf.so.6:Qt_6_PRIVATE_API
libQt6Protobuf.so.6:_Z22qRegisterProtobufTypesv
libQt6Protobuf.so.6:_Z44qRegisterNormalizedMetaType_QtProtobuf_int32RK10QByteArray
libQt6Protobuf.so.6:_Z44qRegisterNormalizedMetaType_QtProtobuf_int64RK10QByteArray
libQt6Protobuf.so.6:_Z46qRegisterNormalizedMetaType_QtProtobuf_fixed32RK10QByteArray
libQt6Protobuf.so.6:_Z46qRegisterNormalizedMetaType_QtProtobuf_fixed64RK10QByteArray
libQt6Protobuf.so.6:_Z47qRegisterNormalizedMetaType_QtProtobuf_sfixed32RK10QByteArray
libQt6Protobuf.so.6:_Z47qRegisterNormalizedMetaType_QtProtobuf_sfixed64RK10QByteArray
libQt6Protobuf.so.6:_Z8Protobufv
libQt6Protobuf.so.6:_ZN10QtProtobuf18ProtoTypeRegistrarC1EPFvvE
libQt6Protobuf.so.6:_ZN10QtProtobuf18ProtoTypeRegistrarC2EPFvvE
libQt6Protobuf.so.6:_ZN16QProtobufMessage11setPropertyE14QAnyStringViewO8QVariant
libQt6Protobuf.so.6:_ZN16QProtobufMessage11setPropertyE14QAnyStringViewRK8QVariant
libQt6Protobuf.so.6:_ZN16QProtobufMessage15constructByNameERK7QString
libQt6Protobuf.so.6:_ZN16QProtobufMessage7isEqualERKS_S1_
libQt6Protobuf.so.6:_ZN16QProtobufMessageC1EPK11QMetaObject
libQt6Protobuf.so.6:_ZN16QProtobufMessageC1ERKS_
libQt6Protobuf.so.6:_ZN16QProtobufMessageC2EPK11QMetaObject
libQt6Protobuf.so.6:_ZN16QProtobufMessageC2ERKS_
libQt6Protobuf.so.6:_ZN16QProtobufMessageD1Ev
libQt6Protobuf.so.6:_ZN16QProtobufMessageD2Ev
libQt6Protobuf.so.6:_ZN16QProtobufMessageaSERKS_
libQt6Protobuf.so.6:_ZN17QtProtobufPrivate11findHandlerE9QMetaType
libQt6Protobuf.so.6:_ZN17QtProtobufPrivate14QProtobufOneof8setValueERK8QVarianti
libQt6Protobuf.so.6:_ZN17QtProtobufPrivate14QProtobufOneofC1ERKS0_
libQt6Protobuf.so.6:_ZN17QtProtobufPrivate14QProtobufOneofC1Ev
libQt6Protobuf.so.6:_ZN17QtProtobufPrivate14QProtobufOneofC2ERKS0_
libQt6Protobuf.so.6:_ZN17QtProtobufPrivate14QProtobufOneofC2Ev
libQt6Protobuf.so.6:_ZN17QtProtobufPrivate14QProtobufOneofD1Ev
libQt6Protobuf.so.6:_ZN17QtProtobufPrivate14QProtobufOneofD2Ev
libQt6Protobuf.so.6:_ZN17QtProtobufPrivate14QProtobufOneofaSERKS0_
libQt6Protobuf.so.6:_ZN17QtProtobufPrivate15registerHandlerE9QMetaTypeRKNS_20SerializationHandlerE
libQt6Protobuf.so.6:_ZN17QtProtobufPrivate16registerOrderingE9QMetaTypeNS_25QProtobufPropertyOrderingE
libQt6Protobuf.so.6:_ZN19QProtobufSerializerC1Ev
libQt6Protobuf.so.6:_ZN19QProtobufSerializerC2Ev
libQt6Protobuf.so.6:_ZN19QProtobufSerializerD0Ev
libQt6Protobuf.so.6:_ZN19QProtobufSerializerD1Ev
libQt6Protobuf.so.6:_ZN19QProtobufSerializerD2Ev
libQt6Protobuf.so.6:_ZN23QProtobufMessageDeleterclEP16QProtobufMessage
libQt6Protobuf.so.6:_ZN27QAbstractProtobufSerializerD0Ev
libQt6Protobuf.so.6:_ZN27QAbstractProtobufSerializerD1Ev
libQt6Protobuf.so.6:_ZN27QAbstractProtobufSerializerD2Ev
libQt6Protobuf.so.6:_ZNK16QProtobufMessage8propertyE14QAnyStringView
libQt6Protobuf.so.6:_ZNK17QtProtobufPrivate14QProtobufOneof10holdsFieldEi
libQt6Protobuf.so.6:_ZNK17QtProtobufPrivate14QProtobufOneof11fieldNumberEv
libQt6Protobuf.so.6:_ZNK17QtProtobufPrivate14QProtobufOneof7isEqualERKS0_
libQt6Protobuf.so.6:_ZNK17QtProtobufPrivate14QProtobufOneof8rawValueEv
libQt6Protobuf.so.6:_ZNK17QtProtobufPrivate25QProtobufPropertyOrdering11getJsonNameEi
libQt6Protobuf.so.6:_ZNK17QtProtobufPrivate25QProtobufPropertyOrdering13getFieldFlagsEi
libQt6Protobuf.so.6:_ZNK17QtProtobufPrivate25QProtobufPropertyOrdering14getFieldNumberEi
libQt6Protobuf.so.6:_ZNK17QtProtobufPrivate25QProtobufPropertyOrdering16getPropertyIndexEi
libQt6Protobuf.so.6:_ZNK17QtProtobufPrivate25QProtobufPropertyOrdering18getMessageFullNameEv
libQt6Protobuf.so.6:_ZNK17QtProtobufPrivate25QProtobufPropertyOrdering18indexOfFieldNumberEi
libQt6Protobuf.so.6:_ZNK19QProtobufSerializer13serializeEnumEN10QtProtobuf18TransparentWrapperIlNS0_7int_tagEEERKN17QtProtobufPrivate29QProtobufPropertyOrderingInfoE
libQt6Protobuf.so.6:_ZNK19QProtobufSerializer15deserializeEnumERN10QtProtobuf18TransparentWrapperIlNS0_7int_tagEEERN17QtProtobufPrivate26QProtobufSelfcheckIteratorE
libQt6Protobuf.so.6:_ZNK19QProtobufSerializer15serializeObjectEPK16QProtobufMessageRKN17QtProtobufPrivate25QProtobufPropertyOrderingERKNS3_29QProtobufPropertyOrderingInfoE
libQt6Protobuf.so.6:_ZNK19QProtobufSerializer16serializeMapPairERK8QVariantS2_RKN17QtProtobufPrivate29QProtobufPropertyOrderingInfoE
libQt6Protobuf.so.6:_ZNK19QProtobufSerializer16serializeMessageEPK16QProtobufMessageRKN17QtProtobufPrivate25QProtobufPropertyOrderingE
libQt6Protobuf.so.6:_ZNK19QProtobufSerializer17deserializeObjectEP16QProtobufMessageRKN17QtProtobufPrivate25QProtobufPropertyOrderingERNS2_26QProtobufSelfcheckIteratorE
libQt6Protobuf.so.6:_ZNK19QProtobufSerializer17serializeEnumListERK5QListIN10QtProtobuf18TransparentWrapperIlNS1_7int_tagEEEERKN17QtProtobufPrivate29QProtobufPropertyOrderingInfoE
libQt6Protobuf.so.6:_ZNK19QProtobufSerializer18deserializeMapPairER8QVariantS1_RN17QtProtobufPrivate26QProtobufSelfcheckIteratorE
libQt6Protobuf.so.6:_ZNK19QProtobufSerializer18deserializeMessageEP16QProtobufMessageRKN17QtProtobufPrivate25QProtobufPropertyOrderingE14QByteArrayView
libQt6Protobuf.so.6:_ZNK19QProtobufSerializer19deserializeEnumListER5QListIN10QtProtobuf18TransparentWrapperIlNS1_7int_tagEEEERN17QtProtobufPrivate26QProtobufSelfcheckIteratorE
libQt6Protobuf.so.6:_ZNK19QProtobufSerializer19serializeListObjectEPK16QProtobufMessageRKN17QtProtobufPrivate25QProtobufPropertyOrderingERKNS3_29QProtobufPropertyOrderingInfoE
libQt6Protobuf.so.6:_ZNK19QProtobufSerializer20deserializationErrorEv
libQt6Protobuf.so.6:_ZNK19QProtobufSerializer21deserializeListObjectEP16QProtobufMessageRKN17QtProtobufPrivate25QProtobufPropertyOrderingERNS2_26QProtobufSelfcheckIteratorE
libQt6Protobuf.so.6:_ZNK19QProtobufSerializer26deserializationErrorStringEv
libQt6Protobuf.so.6:_ZNK27QAbstractProtobufSerializer11doSerializeEPK16QProtobufMessageRKN17QtProtobufPrivate25QProtobufPropertyOrderingE
libQt6Protobuf.so.6:_ZNK27QAbstractProtobufSerializer13doDeserializeEP16QProtobufMessageRKN17QtProtobufPrivate25QProtobufPropertyOrderingE14QByteArrayView
libQt6Protobuf.so.6:_ZNK27QAbstractProtobufSerializer19serializeRawMessageEPK16QProtobufMessage
libQt6Protobuf.so.6:_ZNK27QAbstractProtobufSerializer21deserializeRawMessageEP16QProtobufMessage14QByteArrayView
libQt6ProtobufQtCoreTypes.so.6:Qt_6
libQt6ProtobufQtCoreTypes.so.6:Qt_6_PRIVATE_API
libQt6ProtobufQtCoreTypes.so.6:_ZN10QtProtobuf28qRegisterProtobufQtCoreTypesEv
libQt6ProtobufQtCoreTypes.so.6:_ZN17QtProtobufPrivate23warnTypeConversionErrorEv
libQt6ProtobufQtCoreTypes.so.6:_ZN17QtProtobufPrivate6QtCore14QVersionNumber11setSegmentsERK5QListIN10QtProtobuf18TransparentWrapperIiNS3_7int_tagEEEE
libQt6ProtobufQtCoreTypes.so.6:_ZN17QtProtobufPrivate6QtCore14QVersionNumber13registerTypesEv
libQt6ProtobufQtCoreTypes.so.6:_ZN17QtProtobufPrivate6QtCore14QVersionNumber8segmentsEv
libQt6ProtobufQtCoreTypes.so.6:_ZN17QtProtobufPrivate6QtCore14QVersionNumberC1EOS1_
libQt6ProtobufQtCoreTypes.so.6:_ZN17QtProtobufPrivate6QtCore14QVersionNumberC1ERKS1_
libQt6ProtobufQtCoreTypes.so.6:_ZN17QtProtobufPrivate6QtCore14QVersionNumberC1Ev
libQt6ProtobufQtCoreTypes.so.6:_ZN17QtProtobufPrivate6QtCore14QVersionNumberC2EOS1_
libQt6ProtobufQtCoreTypes.so.6:_ZN17QtProtobufPrivate6QtCore14QVersionNumberC2ERKS1_
libQt6ProtobufQtCoreTypes.so.6:_ZN17QtProtobufPrivate6QtCore14QVersionNumberC2Ev
libQt6ProtobufQtCoreTypes.so.6:_ZN17QtProtobufPrivate6QtCore14QVersionNumberD1Ev
libQt6ProtobufQtCoreTypes.so.6:_ZN17QtProtobufPrivate6QtCore14QVersionNumberD2Ev
libQt6ProtobufQtCoreTypes.so.6:_ZN17QtProtobufPrivate6QtCore14QVersionNumberaSEOS1_
libQt6ProtobufQtCoreTypes.so.6:_ZN17QtProtobufPrivate6QtCore14QVersionNumberaSERKS1_
libQt6ProtobufQtCoreTypes.so.6:_ZN17QtProtobufPrivate6QtCore4QUrl13registerTypesEv
libQt6ProtobufQtCoreTypes.so.6:_ZN17QtProtobufPrivate6QtCore4QUrl6setUrlERK7QString
libQt6ProtobufQtCoreTypes.so.6:_ZN17QtProtobufPrivate6QtCore4QUrlC1EOS1_
libQt6ProtobufQtCoreTypes.so.6:_ZN17QtProtobufPrivate6QtCore4QUrlC1ERKS1_
libQt6ProtobufQtCoreTypes.so.6:_ZN17QtProtobufPrivate6QtCore4QUrlC1Ev
libQt6ProtobufQtCoreTypes.so.6:_ZN17QtProtobufPrivate6QtCore4QUrlC2EOS1_
libQt6ProtobufQtCoreTypes.so.6:_ZN17QtProtobufPrivate6QtCore4QUrlC2ERKS1_
libQt6ProtobufQtCoreTypes.so.6:_ZN17QtProtobufPrivate6QtCore4QUrlC2Ev
libQt6ProtobufQtCoreTypes.so.6:_ZN17QtProtobufPrivate6QtCore4QUrlD1Ev
libQt6ProtobufQtCoreTypes.so.6:_ZN17QtProtobufPrivate6QtCore4QUrlD2Ev
libQt6ProtobufQtCoreTypes.so.6:_ZN17QtProtobufPrivate6QtCore4QUrlaSEOS1_
libQt6ProtobufQtCoreTypes.so.6:_ZN17QtProtobufPrivate6QtCore4QUrlaSERKS1_
libQt6ProtobufQtCoreTypes.so.6:_ZN17QtProtobufPrivate6QtCore5QChar13registerTypesEv
libQt6ProtobufQtCoreTypes.so.6:_ZN17QtProtobufPrivate6QtCore5QChar17setUtf16CodePointERKj
libQt6ProtobufQtCoreTypes.so.6:_ZN17QtProtobufPrivate6QtCore5QCharC1EOS1_
libQt6ProtobufQtCoreTypes.so.6:_ZN17QtProtobufPrivate6QtCore5QCharC1ERKS1_
libQt6ProtobufQtCoreTypes.so.6:_ZN17QtProtobufPrivate6QtCore5QCharC1Ev
libQt6ProtobufQtCoreTypes.so.6:_ZN17QtProtobufPrivate6QtCore5QCharC2EOS1_
libQt6ProtobufQtCoreTypes.so.6:_ZN17QtProtobufPrivate6QtCore5QCharC2ERKS1_
libQt6ProtobufQtCoreTypes.so.6:_ZN17QtProtobufPrivate6QtCore5QCharC2Ev
libQt6ProtobufQtCoreTypes.so.6:_ZN17QtProtobufPrivate6QtCore5QCharD1Ev
libQt6ProtobufQtCoreTypes.so.6:_ZN17QtProtobufPrivate6QtCore5QCharD2Ev
libQt6ProtobufQtCoreTypes.so.6:_ZN17QtProtobufPrivate6QtCore5QCharaSEOS1_
libQt6ProtobufQtCoreTypes.so.6:_ZN17QtProtobufPrivate6QtCore5QCharaSERKS1_
libQt6ProtobufQtCoreTypes.so.6:_ZN17QtProtobufPrivate6QtCore5QDate12setJulianDayERKN10QtProtobuf18TransparentWrapperIlNS2_7int_tagEEE
libQt6ProtobufQtCoreTypes.so.6:_ZN17QtProtobufPrivate6QtCore5QDate13registerTypesEv
libQt6ProtobufQtCoreTypes.so.6:_ZN17QtProtobufPrivate6QtCore5QDateC1EOS1_
libQt6ProtobufQtCoreTypes.so.6:_ZN17QtProtobufPrivate6QtCore5QDateC1ERKS1_
libQt6ProtobufQtCoreTypes.so.6:_ZN17QtProtobufPrivate6QtCore5QDateC1Ev
libQt6ProtobufQtCoreTypes.so.6:_ZN17QtProtobufPrivate6QtCore5QDateC2EOS1_
libQt6ProtobufQtCoreTypes.so.6:_ZN17QtProtobufPrivate6QtCore5QDateC2ERKS1_
libQt6ProtobufQtCoreTypes.so.6:_ZN17QtProtobufPrivate6QtCore5QDateC2Ev
libQt6ProtobufQtCoreTypes.so.6:_ZN17QtProtobufPrivate6QtCore5QDateD1Ev
libQt6ProtobufQtCoreTypes.so.6:_ZN17QtProtobufPrivate6QtCore5QDateD2Ev
libQt6ProtobufQtCoreTypes.so.6:_ZN17QtProtobufPrivate6QtCore5QDateaSEOS1_
libQt6ProtobufQtCoreTypes.so.6:_ZN17QtProtobufPrivate6QtCore5QDateaSERKS1_
libQt6ProtobufQtCoreTypes.so.6:_ZN17QtProtobufPrivate6QtCore5QRect13registerTypesEv
libQt6ProtobufQtCoreTypes.so.6:_ZN17QtProtobufPrivate6QtCore5QRect4setXERKi
libQt6ProtobufQtCoreTypes.so.6:_ZN17QtProtobufPrivate6QtCore5QRect4setYERKi
libQt6ProtobufQtCoreTypes.so.6:_ZN17QtProtobufPrivate6QtCore5QRect8setWidthERKN10QtProtobuf18TransparentWrapperIiNS2_7int_tagEEE
libQt6ProtobufQtCoreTypes.so.6:_ZN17QtProtobufPrivate6QtCore5QRect9setHeightERKN10QtProtobuf18TransparentWrapperIiNS2_7int_tagEEE
libQt6ProtobufQtCoreTypes.so.6:_ZN17QtProtobufPrivate6QtCore5QRectC1EOS1_
libQt6ProtobufQtCoreTypes.so.6:_ZN17QtProtobufPrivate6QtCore5QRectC1ERKS1_
libQt6ProtobufQtCoreTypes.so.6:_ZN17QtProtobufPrivate6QtCore5QRectC1Ev
libQt6ProtobufQtCoreTypes.so.6:_ZN17QtProtobufPrivate6QtCore5QRectC2EOS1_
libQt6ProtobufQtCoreTypes.so.6:_ZN17QtProtobufPrivate6QtCore5QRectC2ERKS1_
libQt6ProtobufQtCoreTypes.so.6:_ZN17QtProtobufPrivate6QtCore5QRectC2Ev
libQt6ProtobufQtCoreTypes.so.6:_ZN17QtProtobufPrivate6QtCore5QRectD1Ev
libQt6ProtobufQtCoreTypes.so.6:_ZN17QtProtobufPrivate6QtCore5QRectD2Ev
libQt6ProtobufQtCoreTypes.so.6:_ZN17QtProtobufPrivate6QtCore5QRectaSEOS1_
libQt6ProtobufQtCoreTypes.so.6:_ZN17QtProtobufPrivate6QtCore5QRectaSERKS1_
libQt6ProtobufQtCoreTypes.so.6:_ZN17QtProtobufPrivate6QtCore5QSize13registerTypesEv
libQt6ProtobufQtCoreTypes.so.6:_ZN17QtProtobufPrivate6QtCore5QSize8setWidthERKN10QtProtobuf18TransparentWrapperIiNS2_7int_tagEEE
libQt6ProtobufQtCoreTypes.so.6:_ZN17QtProtobufPrivate6QtCore5QSize9setHeightERKN10QtProtobuf18TransparentWrapperIiNS2_7int_tagEEE
libQt6ProtobufQtCoreTypes.so.6:_ZN17QtProtobufPrivate6QtCore5QSizeC1EOS1_
libQt6ProtobufQtCoreTypes.so.6:_ZN17QtProtobufPrivate6QtCore5QSizeC1ERKS1_
libQt6ProtobufQtCoreTypes.so.6:_ZN17QtProtobufPrivate6QtCore5QSizeC1Ev
libQt6ProtobufQtCoreTypes.so.6:_ZN17QtProtobufPrivate6QtCore5QSizeC2EOS1_
libQt6ProtobufQtCoreTypes.so.6:_ZN17QtProtobufPrivate6QtCore5QSizeC2ERKS1_
libQt6ProtobufQtCoreTypes.so.6:_ZN17QtProtobufPrivate6QtCore5QSizeC2Ev
libQt6ProtobufQtCoreTypes.so.6:_ZN17QtProtobufPrivate6QtCore5QSizeD1Ev
libQt6ProtobufQtCoreTypes.so.6:_ZN17QtProtobufPrivate6QtCore5QSizeD2Ev
libQt6ProtobufQtCoreTypes.so.6:_ZN17QtProtobufPrivate6QtCore5QSizeaSEOS1_
libQt6ProtobufQtCoreTypes.so.6:_ZN17QtProtobufPrivate6QtCore5QSizeaSERKS1_
libQt6ProtobufQtCoreTypes.so.6:_ZN17QtProtobufPrivate6QtCore5QTime13registerTypesEv
libQt6ProtobufQtCoreTypes.so.6:_ZN17QtProtobufPrivate6QtCore5QTime28setMillisecondsSinceMidnightERKN10QtProtobuf18TransparentWrapperIiNS2_7int_tagEEE
libQt6ProtobufQtCoreTypes.so.6:_ZN17QtProtobufPrivate6QtCore5QTimeC1EOS1_
libQt6ProtobufQtCoreTypes.so.6:_ZN17QtProtobufPrivate6QtCore5QTimeC1ERKS1_
libQt6ProtobufQtCoreTypes.so.6:_ZN17QtProtobufPrivate6QtCore5QTimeC1Ev
libQt6ProtobufQtCoreTypes.so.6:_ZN17QtProtobufPrivate6QtCore5QTimeC2EOS1_
libQt6ProtobufQtCoreTypes.so.6:_ZN17QtProtobufPrivate6QtCore5QTimeC2ERKS1_
libQt6ProtobufQtCoreTypes.so.6:_ZN17QtProtobufPrivate6QtCore5QTimeC2Ev
libQt6ProtobufQtCoreTypes.so.6:_ZN17QtProtobufPrivate6QtCore5QTimeD1Ev
libQt6ProtobufQtCoreTypes.so.6:_ZN17QtProtobufPrivate6QtCore5QTimeD2Ev
libQt6ProtobufQtCoreTypes.so.6:_ZN17QtProtobufPrivate6QtCore5QTimeaSEOS1_
libQt6ProtobufQtCoreTypes.so.6:_ZN17QtProtobufPrivate6QtCore5QTimeaSERKS1_
libQt6ProtobufQtCoreTypes.so.6:_ZN17QtProtobufPrivate6QtCore5QUuid13registerTypesEv
libQt6ProtobufQtCoreTypes.so.6:_ZN17QtProtobufPrivate6QtCore5QUuid14setRfc4122UuidERK10QByteArray
libQt6ProtobufQtCoreTypes.so.6:_ZN17QtProtobufPrivate6QtCore5QUuidC1EOS1_
libQt6ProtobufQtCoreTypes.so.6:_ZN17QtProtobufPrivate6QtCore5QUuidC1ERKS1_
libQt6ProtobufQtCoreTypes.so.6:_ZN17QtProtobufPrivate6QtCore5QUuidC1Ev
libQt6ProtobufQtCoreTypes.so.6:_ZN17QtProtobufPrivate6QtCore5QUuidC2EOS1_
libQt6ProtobufQtCoreTypes.so.6:_ZN17QtProtobufPrivate6QtCore5QUuidC2ERKS1_
libQt6ProtobufQtCoreTypes.so.6:_ZN17QtProtobufPrivate6QtCore5QUuidC2Ev
libQt6ProtobufQtCoreTypes.so.6:_ZN17QtProtobufPrivate6QtCore5QUuidD1Ev
libQt6ProtobufQtCoreTypes.so.6:_ZN17QtProtobufPrivate6QtCore5QUuidD2Ev
libQt6ProtobufQtCoreTypes.so.6:_ZN17QtProtobufPrivate6QtCore5QUuidaSEOS1_
libQt6ProtobufQtCoreTypes.so.6:_ZN17QtProtobufPrivate6QtCore5QUuidaSERKS1_
libQt6ProtobufQtCoreTypes.so.6:_ZN17QtProtobufPrivate6QtCore6QPoint13registerTypesEv
libQt6ProtobufQtCoreTypes.so.6:_ZN17QtProtobufPrivate6QtCore6QPoint4setXERKi
libQt6ProtobufQtCoreTypes.so.6:_ZN17QtProtobufPrivate6QtCore6QPoint4setYERKi
libQt6ProtobufQtCoreTypes.so.6:_ZN17QtProtobufPrivate6QtCore6QPointC1EOS1_
libQt6ProtobufQtCoreTypes.so.6:_ZN17QtProtobufPrivate6QtCore6QPointC1ERKS1_
libQt6ProtobufQtCoreTypes.so.6:_ZN17QtProtobufPrivate6QtCore6QPointC1Ev
libQt6ProtobufQtCoreTypes.so.6:_ZN17QtProtobufPrivate6QtCore6QPointC2EOS1_
libQt6ProtobufQtCoreTypes.so.6:_ZN17QtProtobufPrivate6QtCore6QPointC2ERKS1_
libQt6ProtobufQtCoreTypes.so.6:_ZN17QtProtobufPrivate6QtCore6QPointC2Ev
libQt6ProtobufQtCoreTypes.so.6:_ZN17QtProtobufPrivate6QtCore6QPointD1Ev
libQt6ProtobufQtCoreTypes.so.6:_ZN17QtProtobufPrivate6QtCore6QPointD2Ev
libQt6ProtobufQtCoreTypes.so.6:_ZN17QtProtobufPrivate6QtCore6QPointaSEOS1_
libQt6ProtobufQtCoreTypes.so.6:_ZN17QtProtobufPrivate6QtCore6QPointaSERKS1_
libQt6ProtobufQtCoreTypes.so.6:_ZN17QtProtobufPrivate6QtCore6QRectF13registerTypesEv
libQt6ProtobufQtCoreTypes.so.6:_ZN17QtProtobufPrivate6QtCore6QRectF4setXERKd
libQt6ProtobufQtCoreTypes.so.6:_ZN17QtProtobufPrivate6QtCore6QRectF4setYERKd
libQt6ProtobufQtCoreTypes.so.6:_ZN17QtProtobufPrivate6QtCore6QRectF8setWidthERKd
libQt6ProtobufQtCoreTypes.so.6:_ZN17QtProtobufPrivate6QtCore6QRectF9setHeightERKd
libQt6ProtobufQtCoreTypes.so.6:_ZN17QtProtobufPrivate6QtCore6QRectFC1EOS1_
libQt6ProtobufQtCoreTypes.so.6:_ZN17QtProtobufPrivate6QtCore6QRectFC1ERKS1_
libQt6ProtobufQtCoreTypes.so.6:_ZN17QtProtobufPrivate6QtCore6QRectFC1Ev
libQt6ProtobufQtCoreTypes.so.6:_ZN17QtProtobufPrivate6QtCore6QRectFC2EOS1_
libQt6ProtobufQtCoreTypes.so.6:_ZN17QtProtobufPrivate6QtCore6QRectFC2ERKS1_
libQt6ProtobufQtCoreTypes.so.6:_ZN17QtProtobufPrivate6QtCore6QRectFC2Ev
libQt6ProtobufQtCoreTypes.so.6:_ZN17QtProtobufPrivate6QtCore6QRectFD1Ev
libQt6ProtobufQtCoreTypes.so.6:_ZN17QtProtobufPrivate6QtCore6QRectFD2Ev
libQt6ProtobufQtCoreTypes.so.6:_ZN17QtProtobufPrivate6QtCore6QRectFaSEOS1_
libQt6ProtobufQtCoreTypes.so.6:_ZN17QtProtobufPrivate6QtCore6QRectFaSERKS1_
libQt6ProtobufQtCoreTypes.so.6:_ZN17QtProtobufPrivate6QtCore6QSizeF13registerTypesEv
libQt6ProtobufQtCoreTypes.so.6:_ZN17QtProtobufPrivate6QtCore6QSizeF8setWidthERKd
libQt6ProtobufQtCoreTypes.so.6:_ZN17QtProtobufPrivate6QtCore6QSizeF9setHeightERKd
libQt6ProtobufQtCoreTypes.so.6:_ZN17QtProtobufPrivate6QtCore6QSizeFC1EOS1_
libQt6ProtobufQtCoreTypes.so.6:_ZN17QtProtobufPrivate6QtCore6QSizeFC1ERKS1_
libQt6ProtobufQtCoreTypes.so.6:_ZN17QtProtobufPrivate6QtCore6QSizeFC1Ev
libQt6ProtobufQtCoreTypes.so.6:_ZN17QtProtobufPrivate6QtCore6QSizeFC2EOS1_
libQt6ProtobufQtCoreTypes.so.6:_ZN17QtProtobufPrivate6QtCore6QSizeFC2ERKS1_
libQt6ProtobufQtCoreTypes.so.6:_ZN17QtProtobufPrivate6QtCore6QSizeFC2Ev
libQt6ProtobufQtCoreTypes.so.6:_ZN17QtProtobufPrivate6QtCore6QSizeFD1Ev
libQt6ProtobufQtCoreTypes.so.6:_ZN17QtProtobufPrivate6QtCore6QSizeFD2Ev
libQt6ProtobufQtCoreTypes.so.6:_ZN17QtProtobufPrivate6QtCore6QSizeFaSEOS1_
libQt6ProtobufQtCoreTypes.so.6:_ZN17QtProtobufPrivate6QtCore6QSizeFaSERKS1_
libQt6ProtobufQtCoreTypes.so.6:_ZN17QtProtobufPrivate6QtCore7QPointF13registerTypesEv
libQt6ProtobufQtCoreTypes.so.6:_ZN17QtProtobufPrivate6QtCore7QPointF4setXERKd
libQt6ProtobufQtCoreTypes.so.6:_ZN17QtProtobufPrivate6QtCore7QPointF4setYERKd
libQt6ProtobufQtCoreTypes.so.6:_ZN17QtProtobufPrivate6QtCore7QPointFC1EOS1_
libQt6ProtobufQtCoreTypes.so.6:_ZN17QtProtobufPrivate6QtCore7QPointFC1ERKS1_
libQt6ProtobufQtCoreTypes.so.6:_ZN17QtProtobufPrivate6QtCore7QPointFC1Ev
libQt6ProtobufQtCoreTypes.so.6:_ZN17QtProtobufPrivate6QtCore7QPointFC2EOS1_
libQt6ProtobufQtCoreTypes.so.6:_ZN17QtProtobufPrivate6QtCore7QPointFC2ERKS1_
libQt6ProtobufQtCoreTypes.so.6:_ZN17QtProtobufPrivate6QtCore7QPointFC2Ev
libQt6ProtobufQtCoreTypes.so.6:_ZN17QtProtobufPrivate6QtCore7QPointFD1Ev
libQt6ProtobufQtCoreTypes.so.6:_ZN17QtProtobufPrivate6QtCore7QPointFD2Ev
libQt6ProtobufQtCoreTypes.so.6:_ZN17QtProtobufPrivate6QtCore7QPointFaSEOS1_
libQt6ProtobufQtCoreTypes.so.6:_ZN17QtProtobufPrivate6QtCore7QPointFaSERKS1_
libQt6ProtobufQtCoreTypes.so.6:_ZN17QtProtobufPrivate6QtCore9QDateTime11setTimeZoneERKNS0_9QTimeZoneE
libQt6ProtobufQtCoreTypes.so.6:_ZN17QtProtobufPrivate6QtCore9QDateTime13registerTypesEv
libQt6ProtobufQtCoreTypes.so.6:_ZN17QtProtobufPrivate6QtCore9QDateTime13setTimeZone_pEPNS0_9QTimeZoneE
libQt6ProtobufQtCoreTypes.so.6:_ZN17QtProtobufPrivate6QtCore9QDateTime25setUtcMsecsSinceUnixEpochERKN10QtProtobuf18TransparentWrapperIlNS2_7int_tagEEE
libQt6ProtobufQtCoreTypes.so.6:_ZN17QtProtobufPrivate6QtCore9QDateTimeC1EOS1_
libQt6ProtobufQtCoreTypes.so.6:_ZN17QtProtobufPrivate6QtCore9QDateTimeC1ERKS1_
libQt6ProtobufQtCoreTypes.so.6:_ZN17QtProtobufPrivate6QtCore9QDateTimeC1Ev
libQt6ProtobufQtCoreTypes.so.6:_ZN17QtProtobufPrivate6QtCore9QDateTimeC2EOS1_
libQt6ProtobufQtCoreTypes.so.6:_ZN17QtProtobufPrivate6QtCore9QDateTimeC2ERKS1_
libQt6ProtobufQtCoreTypes.so.6:_ZN17QtProtobufPrivate6QtCore9QDateTimeC2Ev
libQt6ProtobufQtCoreTypes.so.6:_ZN17QtProtobufPrivate6QtCore9QDateTimeD1Ev
libQt6ProtobufQtCoreTypes.so.6:_ZN17QtProtobufPrivate6QtCore9QDateTimeD2Ev
libQt6ProtobufQtCoreTypes.so.6:_ZN17QtProtobufPrivate6QtCore9QDateTimeaSEOS1_
libQt6ProtobufQtCoreTypes.so.6:_ZN17QtProtobufPrivate6QtCore9QDateTimeaSERKS1_
libQt6ProtobufQtCoreTypes.so.6:_ZN17QtProtobufPrivate6QtCore9QTimeZone11setIanaId_pE10QByteArray
libQt6ProtobufQtCoreTypes.so.6:_ZN17QtProtobufPrivate6QtCore9QTimeZone11setTimeSpecERKNS1_8TimeSpecE
libQt6ProtobufQtCoreTypes.so.6:_ZN17QtProtobufPrivate6QtCore9QTimeZone13clearTimeZoneEv
libQt6ProtobufQtCoreTypes.so.6:_ZN17QtProtobufPrivate6QtCore9QTimeZone13registerTypesEv
libQt6ProtobufQtCoreTypes.so.6:_ZN17QtProtobufPrivate6QtCore9QTimeZone13setTimeSpec_pENS1_8TimeSpecE
libQt6ProtobufQtCoreTypes.so.6:_ZN17QtProtobufPrivate6QtCore9QTimeZone16setOffsetSecondsERKN10QtProtobuf18TransparentWrapperIiNS2_7int_tagEEE
libQt6ProtobufQtCoreTypes.so.6:_ZN17QtProtobufPrivate6QtCore9QTimeZone18setOffsetSeconds_pEN10QtProtobuf18TransparentWrapperIiNS2_7int_tagEEE
libQt6ProtobufQtCoreTypes.so.6:_ZN17QtProtobufPrivate6QtCore9QTimeZone9setIanaIdERK10QByteArray
libQt6ProtobufQtCoreTypes.so.6:_ZN17QtProtobufPrivate6QtCore9QTimeZoneC1EOS1_
libQt6ProtobufQtCoreTypes.so.6:_ZN17QtProtobufPrivate6QtCore9QTimeZoneC1ERKS1_
libQt6ProtobufQtCoreTypes.so.6:_ZN17QtProtobufPrivate6QtCore9QTimeZoneC1Ev
libQt6ProtobufQtCoreTypes.so.6:_ZN17QtProtobufPrivate6QtCore9QTimeZoneC2EOS1_
libQt6ProtobufQtCoreTypes.so.6:_ZN17QtProtobufPrivate6QtCore9QTimeZoneC2ERKS1_
libQt6ProtobufQtCoreTypes.so.6:_ZN17QtProtobufPrivate6QtCore9QTimeZoneC2Ev
libQt6ProtobufQtCoreTypes.so.6:_ZN17QtProtobufPrivate6QtCore9QTimeZoneD1Ev
libQt6ProtobufQtCoreTypes.so.6:_ZN17QtProtobufPrivate6QtCore9QTimeZoneD2Ev
libQt6ProtobufQtCoreTypes.so.6:_ZN17QtProtobufPrivate6QtCore9QTimeZoneaSEOS1_
libQt6ProtobufQtCoreTypes.so.6:_ZN17QtProtobufPrivate6QtCore9QTimeZoneaSERKS1_
libQt6ProtobufQtCoreTypes.so.6:_ZNK17QtProtobufPrivate6QtCore14QVersionNumber8segmentsEv
libQt6ProtobufQtCoreTypes.so.6:_ZNK17QtProtobufPrivate6QtCore14QVersionNumbereqERKS1_
libQt6ProtobufQtCoreTypes.so.6:_ZNK17QtProtobufPrivate6QtCore14QVersionNumberneERKS1_
libQt6ProtobufQtCoreTypes.so.6:_ZNK17QtProtobufPrivate6QtCore4QUrl3urlEv
libQt6ProtobufQtCoreTypes.so.6:_ZNK17QtProtobufPrivate6QtCore4QUrleqERKS1_
libQt6ProtobufQtCoreTypes.so.6:_ZNK17QtProtobufPrivate6QtCore4QUrlneERKS1_
libQt6ProtobufQtCoreTypes.so.6:_ZNK17QtProtobufPrivate6QtCore5QChar14utf16CodePointEv
libQt6ProtobufQtCoreTypes.so.6:_ZNK17QtProtobufPrivate6QtCore5QChareqERKS1_
libQt6ProtobufQtCoreTypes.so.6:_ZNK17QtProtobufPrivate6QtCore5QCharneERKS1_
libQt6ProtobufQtCoreTypes.so.6:_ZNK17QtProtobufPrivate6QtCore5QDate9julianDayEv
libQt6ProtobufQtCoreTypes.so.6:_ZNK17QtProtobufPrivate6QtCore5QDateeqERKS1_
libQt6ProtobufQtCoreTypes.so.6:_ZNK17QtProtobufPrivate6QtCore5QDateneERKS1_
libQt6ProtobufQtCoreTypes.so.6:_ZNK17QtProtobufPrivate6QtCore5QRect1xEv
libQt6ProtobufQtCoreTypes.so.6:_ZNK17QtProtobufPrivate6QtCore5QRect1yEv
libQt6ProtobufQtCoreTypes.so.6:_ZNK17QtProtobufPrivate6QtCore5QRect5widthEv
libQt6ProtobufQtCoreTypes.so.6:_ZNK17QtProtobufPrivate6QtCore5QRect6heightEv
libQt6ProtobufQtCoreTypes.so.6:_ZNK17QtProtobufPrivate6QtCore5QRecteqERKS1_
libQt6ProtobufQtCoreTypes.so.6:_ZNK17QtProtobufPrivate6QtCore5QRectneERKS1_
libQt6ProtobufQtCoreTypes.so.6:_ZNK17QtProtobufPrivate6QtCore5QSize5widthEv
libQt6ProtobufQtCoreTypes.so.6:_ZNK17QtProtobufPrivate6QtCore5QSize6heightEv
libQt6ProtobufQtCoreTypes.so.6:_ZNK17QtProtobufPrivate6QtCore5QSizeeqERKS1_
libQt6ProtobufQtCoreTypes.so.6:_ZNK17QtProtobufPrivate6QtCore5QSizeneERKS1_
libQt6ProtobufQtCoreTypes.so.6:_ZNK17QtProtobufPrivate6QtCore5QTime25millisecondsSinceMidnightEv
libQt6ProtobufQtCoreTypes.so.6:_ZNK17QtProtobufPrivate6QtCore5QTimeeqERKS1_
libQt6ProtobufQtCoreTypes.so.6:_ZNK17QtProtobufPrivate6QtCore5QTimeneERKS1_
libQt6ProtobufQtCoreTypes.so.6:_ZNK17QtProtobufPrivate6QtCore5QUuid11rfc4122UuidEv
libQt6ProtobufQtCoreTypes.so.6:_ZNK17QtProtobufPrivate6QtCore5QUuideqERKS1_
libQt6ProtobufQtCoreTypes.so.6:_ZNK17QtProtobufPrivate6QtCore5QUuidneERKS1_
libQt6ProtobufQtCoreTypes.so.6:_ZNK17QtProtobufPrivate6QtCore6QPoint1xEv
libQt6ProtobufQtCoreTypes.so.6:_ZNK17QtProtobufPrivate6QtCore6QPoint1yEv
libQt6ProtobufQtCoreTypes.so.6:_ZNK17QtProtobufPrivate6QtCore6QPointeqERKS1_
libQt6ProtobufQtCoreTypes.so.6:_ZNK17QtProtobufPrivate6QtCore6QPointneERKS1_
libQt6ProtobufQtCoreTypes.so.6:_ZNK17QtProtobufPrivate6QtCore6QRectF1xEv
libQt6ProtobufQtCoreTypes.so.6:_ZNK17QtProtobufPrivate6QtCore6QRectF1yEv
libQt6ProtobufQtCoreTypes.so.6:_ZNK17QtProtobufPrivate6QtCore6QRectF5widthEv
libQt6ProtobufQtCoreTypes.so.6:_ZNK17QtProtobufPrivate6QtCore6QRectF6heightEv
libQt6ProtobufQtCoreTypes.so.6:_ZNK17QtProtobufPrivate6QtCore6QRectFeqERKS1_
libQt6ProtobufQtCoreTypes.so.6:_ZNK17QtProtobufPrivate6QtCore6QRectFneERKS1_
libQt6ProtobufQtCoreTypes.so.6:_ZNK17QtProtobufPrivate6QtCore6QSizeF5widthEv
libQt6ProtobufQtCoreTypes.so.6:_ZNK17QtProtobufPrivate6QtCore6QSizeF6heightEv
libQt6ProtobufQtCoreTypes.so.6:_ZNK17QtProtobufPrivate6QtCore6QSizeFeqERKS1_
libQt6ProtobufQtCoreTypes.so.6:_ZNK17QtProtobufPrivate6QtCore6QSizeFneERKS1_
libQt6ProtobufQtCoreTypes.so.6:_ZNK17QtProtobufPrivate6QtCore7QPointF1xEv
libQt6ProtobufQtCoreTypes.so.6:_ZNK17QtProtobufPrivate6QtCore7QPointF1yEv
libQt6ProtobufQtCoreTypes.so.6:_ZNK17QtProtobufPrivate6QtCore7QPointFeqERKS1_
libQt6ProtobufQtCoreTypes.so.6:_ZNK17QtProtobufPrivate6QtCore7QPointFneERKS1_
libQt6ProtobufQtCoreTypes.so.6:_ZNK17QtProtobufPrivate6QtCore9QDateTime10timeZone_pEv
libQt6ProtobufQtCoreTypes.so.6:_ZNK17QtProtobufPrivate6QtCore9QDateTime22utcMsecsSinceUnixEpochEv
libQt6ProtobufQtCoreTypes.so.6:_ZNK17QtProtobufPrivate6QtCore9QDateTime8timeZoneEv
libQt6ProtobufQtCoreTypes.so.6:_ZNK17QtProtobufPrivate6QtCore9QDateTimeeqERKS1_
libQt6ProtobufQtCoreTypes.so.6:_ZNK17QtProtobufPrivate6QtCore9QDateTimeneERKS1_
libQt6ProtobufQtCoreTypes.so.6:_ZNK17QtProtobufPrivate6QtCore9QTimeZone10timeSpec_pEv
libQt6ProtobufQtCoreTypes.so.6:_ZNK17QtProtobufPrivate6QtCore9QTimeZone11hasTimeSpecEv
libQt6ProtobufQtCoreTypes.so.6:_ZNK17QtProtobufPrivate6QtCore9QTimeZone13offsetSecondsEv
libQt6ProtobufQtCoreTypes.so.6:_ZNK17QtProtobufPrivate6QtCore9QTimeZone13timeZoneFieldEv
libQt6ProtobufQtCoreTypes.so.6:_ZNK17QtProtobufPrivate6QtCore9QTimeZone15offsetSeconds_pEv
libQt6ProtobufQtCoreTypes.so.6:_ZNK17QtProtobufPrivate6QtCore9QTimeZone16hasOffsetSecondsEv
libQt6ProtobufQtCoreTypes.so.6:_ZNK17QtProtobufPrivate6QtCore9QTimeZone6ianaIdEv
libQt6ProtobufQtCoreTypes.so.6:_ZNK17QtProtobufPrivate6QtCore9QTimeZone8ianaId_pEv
libQt6ProtobufQtCoreTypes.so.6:_ZNK17QtProtobufPrivate6QtCore9QTimeZone8timeSpecEv
libQt6ProtobufQtCoreTypes.so.6:_ZNK17QtProtobufPrivate6QtCore9QTimeZone9hasIanaIdEv
libQt6ProtobufQtCoreTypes.so.6:_ZNK17QtProtobufPrivate6QtCore9QTimeZoneeqERKS1_
libQt6ProtobufQtCoreTypes.so.6:_ZNK17QtProtobufPrivate6QtCore9QTimeZoneneERKS1_
libQt6ProtobufQtGuiTypes.so.6:Qt_6
libQt6ProtobufQtGuiTypes.so.6:Qt_6_PRIVATE_API
libQt6ProtobufQtGuiTypes.so.6:_ZN10QtProtobuf27qRegisterProtobufQtGuiTypesEv
libQt6ProtobufQtGuiTypes.so.6:_ZN17QtProtobufPrivate5QtGui10QMatrix4x413registerTypesEv
libQt6ProtobufQtGuiTypes.so.6:_ZN17QtProtobufPrivate5QtGui10QMatrix4x41mEv
libQt6ProtobufQtGuiTypes.so.6:_ZN17QtProtobufPrivate5QtGui10QMatrix4x44setMERK5QListIfE
libQt6ProtobufQtGuiTypes.so.6:_ZN17QtProtobufPrivate5QtGui10QMatrix4x4C1EOS1_
libQt6ProtobufQtGuiTypes.so.6:_ZN17QtProtobufPrivate5QtGui10QMatrix4x4C1ERKS1_
libQt6ProtobufQtGuiTypes.so.6:_ZN17QtProtobufPrivate5QtGui10QMatrix4x4C1Ev
libQt6ProtobufQtGuiTypes.so.6:_ZN17QtProtobufPrivate5QtGui10QMatrix4x4C2EOS1_
libQt6ProtobufQtGuiTypes.so.6:_ZN17QtProtobufPrivate5QtGui10QMatrix4x4C2ERKS1_
libQt6ProtobufQtGuiTypes.so.6:_ZN17QtProtobufPrivate5QtGui10QMatrix4x4C2Ev
libQt6ProtobufQtGuiTypes.so.6:_ZN17QtProtobufPrivate5QtGui10QMatrix4x4D1Ev
libQt6ProtobufQtGuiTypes.so.6:_ZN17QtProtobufPrivate5QtGui10QMatrix4x4D2Ev
libQt6ProtobufQtGuiTypes.so.6:_ZN17QtProtobufPrivate5QtGui10QMatrix4x4aSEOS1_
libQt6ProtobufQtGuiTypes.so.6:_ZN17QtProtobufPrivate5QtGui10QMatrix4x4aSERKS1_
libQt6ProtobufQtGuiTypes.so.6:_ZN17QtProtobufPrivate5QtGui10QTransform13registerTypesEv
libQt6ProtobufQtGuiTypes.so.6:_ZN17QtProtobufPrivate5QtGui10QTransform1mEv
libQt6ProtobufQtGuiTypes.so.6:_ZN17QtProtobufPrivate5QtGui10QTransform4setMERK5QListIdE
libQt6ProtobufQtGuiTypes.so.6:_ZN17QtProtobufPrivate5QtGui10QTransformC1EOS1_
libQt6ProtobufQtGuiTypes.so.6:_ZN17QtProtobufPrivate5QtGui10QTransformC1ERKS1_
libQt6ProtobufQtGuiTypes.so.6:_ZN17QtProtobufPrivate5QtGui10QTransformC1Ev
libQt6ProtobufQtGuiTypes.so.6:_ZN17QtProtobufPrivate5QtGui10QTransformC2EOS1_
libQt6ProtobufQtGuiTypes.so.6:_ZN17QtProtobufPrivate5QtGui10QTransformC2ERKS1_
libQt6ProtobufQtGuiTypes.so.6:_ZN17QtProtobufPrivate5QtGui10QTransformC2Ev
libQt6ProtobufQtGuiTypes.so.6:_ZN17QtProtobufPrivate5QtGui10QTransformD1Ev
libQt6ProtobufQtGuiTypes.so.6:_ZN17QtProtobufPrivate5QtGui10QTransformD2Ev
libQt6ProtobufQtGuiTypes.so.6:_ZN17QtProtobufPrivate5QtGui10QTransformaSEOS1_
libQt6ProtobufQtGuiTypes.so.6:_ZN17QtProtobufPrivate5QtGui10QTransformaSERKS1_
libQt6ProtobufQtGuiTypes.so.6:_ZN17QtProtobufPrivate5QtGui11QQuaternion13registerTypesEv
libQt6ProtobufQtGuiTypes.so.6:_ZN17QtProtobufPrivate5QtGui11QQuaternion4setXERKf
libQt6ProtobufQtGuiTypes.so.6:_ZN17QtProtobufPrivate5QtGui11QQuaternion4setYERKf
libQt6ProtobufQtGuiTypes.so.6:_ZN17QtProtobufPrivate5QtGui11QQuaternion4setZERKf
libQt6ProtobufQtGuiTypes.so.6:_ZN17QtProtobufPrivate5QtGui11QQuaternion9setScalarERKf
libQt6ProtobufQtGuiTypes.so.6:_ZN17QtProtobufPrivate5QtGui11QQuaternionC1EOS1_
libQt6ProtobufQtGuiTypes.so.6:_ZN17QtProtobufPrivate5QtGui11QQuaternionC1ERKS1_
libQt6ProtobufQtGuiTypes.so.6:_ZN17QtProtobufPrivate5QtGui11QQuaternionC1Ev
libQt6ProtobufQtGuiTypes.so.6:_ZN17QtProtobufPrivate5QtGui11QQuaternionC2EOS1_
libQt6ProtobufQtGuiTypes.so.6:_ZN17QtProtobufPrivate5QtGui11QQuaternionC2ERKS1_
libQt6ProtobufQtGuiTypes.so.6:_ZN17QtProtobufPrivate5QtGui11QQuaternionC2Ev
libQt6ProtobufQtGuiTypes.so.6:_ZN17QtProtobufPrivate5QtGui11QQuaternionD1Ev
libQt6ProtobufQtGuiTypes.so.6:_ZN17QtProtobufPrivate5QtGui11QQuaternionD2Ev
libQt6ProtobufQtGuiTypes.so.6:_ZN17QtProtobufPrivate5QtGui11QQuaternionaSEOS1_
libQt6ProtobufQtGuiTypes.so.6:_ZN17QtProtobufPrivate5QtGui11QQuaternionaSERKS1_
libQt6ProtobufQtGuiTypes.so.6:_ZN17QtProtobufPrivate5QtGui6QColor10clearColorEv
libQt6ProtobufQtGuiTypes.so.6:_ZN17QtProtobufPrivate5QtGui6QColor11setRgba64_pEPNS0_7QRgba64E
libQt6ProtobufQtGuiTypes.so.6:_ZN17QtProtobufPrivate5QtGui6QColor13registerTypesEv
libQt6ProtobufQtGuiTypes.so.6:_ZN17QtProtobufPrivate5QtGui6QColor7setRgbaERKj
libQt6ProtobufQtGuiTypes.so.6:_ZN17QtProtobufPrivate5QtGui6QColor9setRgba64ERKNS0_7QRgba64E
libQt6ProtobufQtGuiTypes.so.6:_ZN17QtProtobufPrivate5QtGui6QColor9setRgba_pEj
libQt6ProtobufQtGuiTypes.so.6:_ZN17QtProtobufPrivate5QtGui6QColorC1EOS1_
libQt6ProtobufQtGuiTypes.so.6:_ZN17QtProtobufPrivate5QtGui6QColorC1ERKS1_
libQt6ProtobufQtGuiTypes.so.6:_ZN17QtProtobufPrivate5QtGui6QColorC1Ev
libQt6ProtobufQtGuiTypes.so.6:_ZN17QtProtobufPrivate5QtGui6QColorC2EOS1_
libQt6ProtobufQtGuiTypes.so.6:_ZN17QtProtobufPrivate5QtGui6QColorC2ERKS1_
libQt6ProtobufQtGuiTypes.so.6:_ZN17QtProtobufPrivate5QtGui6QColorC2Ev
libQt6ProtobufQtGuiTypes.so.6:_ZN17QtProtobufPrivate5QtGui6QColorD1Ev
libQt6ProtobufQtGuiTypes.so.6:_ZN17QtProtobufPrivate5QtGui6QColorD2Ev
libQt6ProtobufQtGuiTypes.so.6:_ZN17QtProtobufPrivate5QtGui6QColoraSEOS1_
libQt6ProtobufQtGuiTypes.so.6:_ZN17QtProtobufPrivate5QtGui6QColoraSERKS1_
libQt6ProtobufQtGuiTypes.so.6:_ZN17QtProtobufPrivate5QtGui6QImage13registerTypesEv
libQt6ProtobufQtGuiTypes.so.6:_ZN17QtProtobufPrivate5QtGui6QImage7setDataERK10QByteArray
libQt6ProtobufQtGuiTypes.so.6:_ZN17QtProtobufPrivate5QtGui6QImage9setFormatERK7QString
libQt6ProtobufQtGuiTypes.so.6:_ZN17QtProtobufPrivate5QtGui6QImageC1EOS1_
libQt6ProtobufQtGuiTypes.so.6:_ZN17QtProtobufPrivate5QtGui6QImageC1ERKS1_
libQt6ProtobufQtGuiTypes.so.6:_ZN17QtProtobufPrivate5QtGui6QImageC1Ev
libQt6ProtobufQtGuiTypes.so.6:_ZN17QtProtobufPrivate5QtGui6QImageC2EOS1_
libQt6ProtobufQtGuiTypes.so.6:_ZN17QtProtobufPrivate5QtGui6QImageC2ERKS1_
libQt6ProtobufQtGuiTypes.so.6:_ZN17QtProtobufPrivate5QtGui6QImageC2Ev
libQt6ProtobufQtGuiTypes.so.6:_ZN17QtProtobufPrivate5QtGui6QImageD1Ev
libQt6ProtobufQtGuiTypes.so.6:_ZN17QtProtobufPrivate5QtGui6QImageD2Ev
libQt6ProtobufQtGuiTypes.so.6:_ZN17QtProtobufPrivate5QtGui6QImageaSEOS1_
libQt6ProtobufQtGuiTypes.so.6:_ZN17QtProtobufPrivate5QtGui6QImageaSERKS1_
libQt6ProtobufQtGuiTypes.so.6:_ZN17QtProtobufPrivate5QtGui7QRgba6413registerTypesEv
libQt6ProtobufQtGuiTypes.so.6:_ZN17QtProtobufPrivate5QtGui7QRgba649setRgba64ERKm
libQt6ProtobufQtGuiTypes.so.6:_ZN17QtProtobufPrivate5QtGui7QRgba64C1EOS1_
libQt6ProtobufQtGuiTypes.so.6:_ZN17QtProtobufPrivate5QtGui7QRgba64C1ERKS1_
libQt6ProtobufQtGuiTypes.so.6:_ZN17QtProtobufPrivate5QtGui7QRgba64C1Ev
libQt6ProtobufQtGuiTypes.so.6:_ZN17QtProtobufPrivate5QtGui7QRgba64C2EOS1_
libQt6ProtobufQtGuiTypes.so.6:_ZN17QtProtobufPrivate5QtGui7QRgba64C2ERKS1_
libQt6ProtobufQtGuiTypes.so.6:_ZN17QtProtobufPrivate5QtGui7QRgba64C2Ev
libQt6ProtobufQtGuiTypes.so.6:_ZN17QtProtobufPrivate5QtGui7QRgba64D1Ev
libQt6ProtobufQtGuiTypes.so.6:_ZN17QtProtobufPrivate5QtGui7QRgba64D2Ev
libQt6ProtobufQtGuiTypes.so.6:_ZN17QtProtobufPrivate5QtGui7QRgba64aSEOS1_
libQt6ProtobufQtGuiTypes.so.6:_ZN17QtProtobufPrivate5QtGui7QRgba64aSERKS1_
libQt6ProtobufQtGuiTypes.so.6:_ZN17QtProtobufPrivate5QtGui9QVector2D13registerTypesEv
libQt6ProtobufQtGuiTypes.so.6:_ZN17QtProtobufPrivate5QtGui9QVector2D7setXPosERKf
libQt6ProtobufQtGuiTypes.so.6:_ZN17QtProtobufPrivate5QtGui9QVector2D7setYPosERKf
libQt6ProtobufQtGuiTypes.so.6:_ZN17QtProtobufPrivate5QtGui9QVector2DC1EOS1_
libQt6ProtobufQtGuiTypes.so.6:_ZN17QtProtobufPrivate5QtGui9QVector2DC1ERKS1_
libQt6ProtobufQtGuiTypes.so.6:_ZN17QtProtobufPrivate5QtGui9QVector2DC1Ev
libQt6ProtobufQtGuiTypes.so.6:_ZN17QtProtobufPrivate5QtGui9QVector2DC2EOS1_
libQt6ProtobufQtGuiTypes.so.6:_ZN17QtProtobufPrivate5QtGui9QVector2DC2ERKS1_
libQt6ProtobufQtGuiTypes.so.6:_ZN17QtProtobufPrivate5QtGui9QVector2DC2Ev
libQt6ProtobufQtGuiTypes.so.6:_ZN17QtProtobufPrivate5QtGui9QVector2DD1Ev
libQt6ProtobufQtGuiTypes.so.6:_ZN17QtProtobufPrivate5QtGui9QVector2DD2Ev
libQt6ProtobufQtGuiTypes.so.6:_ZN17QtProtobufPrivate5QtGui9QVector2DaSEOS1_
libQt6ProtobufQtGuiTypes.so.6:_ZN17QtProtobufPrivate5QtGui9QVector2DaSERKS1_
libQt6ProtobufQtGuiTypes.so.6:_ZN17QtProtobufPrivate5QtGui9QVector3D13registerTypesEv
libQt6ProtobufQtGuiTypes.so.6:_ZN17QtProtobufPrivate5QtGui9QVector3D7setXPosERKf
libQt6ProtobufQtGuiTypes.so.6:_ZN17QtProtobufPrivate5QtGui9QVector3D7setYPosERKf
libQt6ProtobufQtGuiTypes.so.6:_ZN17QtProtobufPrivate5QtGui9QVector3D7setZPosERKf
libQt6ProtobufQtGuiTypes.so.6:_ZN17QtProtobufPrivate5QtGui9QVector3DC1EOS1_
libQt6ProtobufQtGuiTypes.so.6:_ZN17QtProtobufPrivate5QtGui9QVector3DC1ERKS1_
libQt6ProtobufQtGuiTypes.so.6:_ZN17QtProtobufPrivate5QtGui9QVector3DC1Ev
libQt6ProtobufQtGuiTypes.so.6:_ZN17QtProtobufPrivate5QtGui9QVector3DC2EOS1_
libQt6ProtobufQtGuiTypes.so.6:_ZN17QtProtobufPrivate5QtGui9QVector3DC2ERKS1_
libQt6ProtobufQtGuiTypes.so.6:_ZN17QtProtobufPrivate5QtGui9QVector3DC2Ev
libQt6ProtobufQtGuiTypes.so.6:_ZN17QtProtobufPrivate5QtGui9QVector3DD1Ev
libQt6ProtobufQtGuiTypes.so.6:_ZN17QtProtobufPrivate5QtGui9QVector3DD2Ev
libQt6ProtobufQtGuiTypes.so.6:_ZN17QtProtobufPrivate5QtGui9QVector3DaSEOS1_
libQt6ProtobufQtGuiTypes.so.6:_ZN17QtProtobufPrivate5QtGui9QVector3DaSERKS1_
libQt6ProtobufQtGuiTypes.so.6:_ZN17QtProtobufPrivate5QtGui9QVector4D13registerTypesEv
libQt6ProtobufQtGuiTypes.so.6:_ZN17QtProtobufPrivate5QtGui9QVector4D7setWPosERKf
libQt6ProtobufQtGuiTypes.so.6:_ZN17QtProtobufPrivate5QtGui9QVector4D7setXPosERKf
libQt6ProtobufQtGuiTypes.so.6:_ZN17QtProtobufPrivate5QtGui9QVector4D7setYPosERKf
libQt6ProtobufQtGuiTypes.so.6:_ZN17QtProtobufPrivate5QtGui9QVector4D7setZPosERKf
libQt6ProtobufQtGuiTypes.so.6:_ZN17QtProtobufPrivate5QtGui9QVector4DC1EOS1_
libQt6ProtobufQtGuiTypes.so.6:_ZN17QtProtobufPrivate5QtGui9QVector4DC1ERKS1_
libQt6ProtobufQtGuiTypes.so.6:_ZN17QtProtobufPrivate5QtGui9QVector4DC1Ev
libQt6ProtobufQtGuiTypes.so.6:_ZN17QtProtobufPrivate5QtGui9QVector4DC2EOS1_
libQt6ProtobufQtGuiTypes.so.6:_ZN17QtProtobufPrivate5QtGui9QVector4DC2ERKS1_
libQt6ProtobufQtGuiTypes.so.6:_ZN17QtProtobufPrivate5QtGui9QVector4DC2Ev
libQt6ProtobufQtGuiTypes.so.6:_ZN17QtProtobufPrivate5QtGui9QVector4DD1Ev
libQt6ProtobufQtGuiTypes.so.6:_ZN17QtProtobufPrivate5QtGui9QVector4DD2Ev
libQt6ProtobufQtGuiTypes.so.6:_ZN17QtProtobufPrivate5QtGui9QVector4DaSEOS1_
libQt6ProtobufQtGuiTypes.so.6:_ZN17QtProtobufPrivate5QtGui9QVector4DaSERKS1_
libQt6ProtobufQtGuiTypes.so.6:_ZNK17QtProtobufPrivate5QtGui10QMatrix4x41mEv
libQt6ProtobufQtGuiTypes.so.6:_ZNK17QtProtobufPrivate5QtGui10QMatrix4x4eqERKS1_
libQt6ProtobufQtGuiTypes.so.6:_ZNK17QtProtobufPrivate5QtGui10QMatrix4x4neERKS1_
libQt6ProtobufQtGuiTypes.so.6:_ZNK17QtProtobufPrivate5QtGui10QTransform1mEv
libQt6ProtobufQtGuiTypes.so.6:_ZNK17QtProtobufPrivate5QtGui10QTransformeqERKS1_
libQt6ProtobufQtGuiTypes.so.6:_ZNK17QtProtobufPrivate5QtGui10QTransformneERKS1_
libQt6ProtobufQtGuiTypes.so.6:_ZNK17QtProtobufPrivate5QtGui11QQuaternion1xEv
libQt6ProtobufQtGuiTypes.so.6:_ZNK17QtProtobufPrivate5QtGui11QQuaternion1yEv
libQt6ProtobufQtGuiTypes.so.6:_ZNK17QtProtobufPrivate5QtGui11QQuaternion1zEv
libQt6ProtobufQtGuiTypes.so.6:_ZNK17QtProtobufPrivate5QtGui11QQuaternion6scalarEv
libQt6ProtobufQtGuiTypes.so.6:_ZNK17QtProtobufPrivate5QtGui11QQuaternioneqERKS1_
libQt6ProtobufQtGuiTypes.so.6:_ZNK17QtProtobufPrivate5QtGui11QQuaternionneERKS1_
libQt6ProtobufQtGuiTypes.so.6:_ZNK17QtProtobufPrivate5QtGui6QColor10colorFieldEv
libQt6ProtobufQtGuiTypes.so.6:_ZNK17QtProtobufPrivate5QtGui6QColor4rgbaEv
libQt6ProtobufQtGuiTypes.so.6:_ZNK17QtProtobufPrivate5QtGui6QColor6rgba64Ev
libQt6ProtobufQtGuiTypes.so.6:_ZNK17QtProtobufPrivate5QtGui6QColor6rgba_pEv
libQt6ProtobufQtGuiTypes.so.6:_ZNK17QtProtobufPrivate5QtGui6QColor7hasRgbaEv
libQt6ProtobufQtGuiTypes.so.6:_ZNK17QtProtobufPrivate5QtGui6QColor8rgba64_pEv
libQt6ProtobufQtGuiTypes.so.6:_ZNK17QtProtobufPrivate5QtGui6QColor9hasRgba64Ev
libQt6ProtobufQtGuiTypes.so.6:_ZNK17QtProtobufPrivate5QtGui6QColoreqERKS1_
libQt6ProtobufQtGuiTypes.so.6:_ZNK17QtProtobufPrivate5QtGui6QColorneERKS1_
libQt6ProtobufQtGuiTypes.so.6:_ZNK17QtProtobufPrivate5QtGui6QImage4dataEv
libQt6ProtobufQtGuiTypes.so.6:_ZNK17QtProtobufPrivate5QtGui6QImage6formatEv
libQt6ProtobufQtGuiTypes.so.6:_ZNK17QtProtobufPrivate5QtGui6QImageeqERKS1_
libQt6ProtobufQtGuiTypes.so.6:_ZNK17QtProtobufPrivate5QtGui6QImageneERKS1_
libQt6ProtobufQtGuiTypes.so.6:_ZNK17QtProtobufPrivate5QtGui7QRgba646rgba64Ev
libQt6ProtobufQtGuiTypes.so.6:_ZNK17QtProtobufPrivate5QtGui7QRgba64eqERKS1_
libQt6ProtobufQtGuiTypes.so.6:_ZNK17QtProtobufPrivate5QtGui7QRgba64neERKS1_
libQt6ProtobufQtGuiTypes.so.6:_ZNK17QtProtobufPrivate5QtGui9QVector2D4xPosEv
libQt6ProtobufQtGuiTypes.so.6:_ZNK17QtProtobufPrivate5QtGui9QVector2D4yPosEv
libQt6ProtobufQtGuiTypes.so.6:_ZNK17QtProtobufPrivate5QtGui9QVector2DeqERKS1_
libQt6ProtobufQtGuiTypes.so.6:_ZNK17QtProtobufPrivate5QtGui9QVector2DneERKS1_
libQt6ProtobufQtGuiTypes.so.6:_ZNK17QtProtobufPrivate5QtGui9QVector3D4xPosEv
libQt6ProtobufQtGuiTypes.so.6:_ZNK17QtProtobufPrivate5QtGui9QVector3D4yPosEv
libQt6ProtobufQtGuiTypes.so.6:_ZNK17QtProtobufPrivate5QtGui9QVector3D4zPosEv
libQt6ProtobufQtGuiTypes.so.6:_ZNK17QtProtobufPrivate5QtGui9QVector3DeqERKS1_
libQt6ProtobufQtGuiTypes.so.6:_ZNK17QtProtobufPrivate5QtGui9QVector3DneERKS1_
libQt6ProtobufQtGuiTypes.so.6:_ZNK17QtProtobufPrivate5QtGui9QVector4D4wPosEv
libQt6ProtobufQtGuiTypes.so.6:_ZNK17QtProtobufPrivate5QtGui9QVector4D4xPosEv
libQt6ProtobufQtGuiTypes.so.6:_ZNK17QtProtobufPrivate5QtGui9QVector4D4yPosEv
libQt6ProtobufQtGuiTypes.so.6:_ZNK17QtProtobufPrivate5QtGui9QVector4D4zPosEv
libQt6ProtobufQtGuiTypes.so.6:_ZNK17QtProtobufPrivate5QtGui9QVector4DeqERKS1_
libQt6ProtobufQtGuiTypes.so.6:_ZNK17QtProtobufPrivate5QtGui9QVector4DneERKS1_
libQt6ProtobufWellKnownTypes.so.6:Qt_6
libQt6ProtobufWellKnownTypes.so.6:Qt_6_PRIVATE_API
libQt6ProtobufWellKnownTypes.so.6:_ZN10QtProtobuf3Any10setTypeUrlERK7QString
libQt6ProtobufWellKnownTypes.so.6:_ZN10QtProtobuf3Any13registerTypesEv
libQt6ProtobufWellKnownTypes.so.6:_ZN10QtProtobuf3Any15fromMessageImplEPK16QProtobufMessageN17QtProtobufPrivate25QProtobufPropertyOrderingE14QAnyStringView
libQt6ProtobufWellKnownTypes.so.6:_ZN10QtProtobuf3Any16defaultUrlPrefixEv
libQt6ProtobufWellKnownTypes.so.6:_ZN10QtProtobuf3Any18fromAnyMessageImplEPKS0_14QAnyStringView
libQt6ProtobufWellKnownTypes.so.6:_ZN10QtProtobuf3Any8setValueERK10QByteArray
libQt6ProtobufWellKnownTypes.so.6:_ZN10QtProtobuf3AnyC1ERKS0_
libQt6ProtobufWellKnownTypes.so.6:_ZN10QtProtobuf3AnyC1Ev
libQt6ProtobufWellKnownTypes.so.6:_ZN10QtProtobuf3AnyC2ERKS0_
libQt6ProtobufWellKnownTypes.so.6:_ZN10QtProtobuf3AnyC2Ev
libQt6ProtobufWellKnownTypes.so.6:_ZN10QtProtobuf3AnyD1Ev
libQt6ProtobufWellKnownTypes.so.6:_ZN10QtProtobuf3AnyD2Ev
libQt6ProtobufWellKnownTypes.so.6:_ZN10QtProtobuf3AnyaSERKS0_
libQt6ProtobufWellKnownTypes.so.6:_ZN6google8protobuf3Any10setTypeUrlERK7QString
libQt6ProtobufWellKnownTypes.so.6:_ZN6google8protobuf3Any13registerTypesEv
libQt6ProtobufWellKnownTypes.so.6:_ZN6google8protobuf3Any8setValueERK10QByteArray
libQt6ProtobufWellKnownTypes.so.6:_ZN6google8protobuf3AnyC1EOS1_
libQt6ProtobufWellKnownTypes.so.6:_ZN6google8protobuf3AnyC1ERKS1_
libQt6ProtobufWellKnownTypes.so.6:_ZN6google8protobuf3AnyC1Ev
libQt6ProtobufWellKnownTypes.so.6:_ZN6google8protobuf3AnyC2EOS1_
libQt6ProtobufWellKnownTypes.so.6:_ZN6google8protobuf3AnyC2ERKS1_
libQt6ProtobufWellKnownTypes.so.6:_ZN6google8protobuf3AnyC2Ev
libQt6ProtobufWellKnownTypes.so.6:_ZN6google8protobuf3AnyD1Ev
libQt6ProtobufWellKnownTypes.so.6:_ZN6google8protobuf3AnyD2Ev
libQt6ProtobufWellKnownTypes.so.6:_ZN6google8protobuf3AnyaSEOS1_
libQt6ProtobufWellKnownTypes.so.6:_ZN6google8protobuf3AnyaSERKS1_
libQt6ProtobufWellKnownTypes.so.6:_ZNK10QtProtobuf3Any5valueEv
libQt6ProtobufWellKnownTypes.so.6:_ZNK10QtProtobuf3Any6asImplEP16QProtobufMessageN17QtProtobufPrivate25QProtobufPropertyOrderingE
libQt6ProtobufWellKnownTypes.so.6:_ZNK10QtProtobuf3Any6equalsERKS0_
libQt6ProtobufWellKnownTypes.so.6:_ZNK10QtProtobuf3Any7typeUrlEv
libQt6ProtobufWellKnownTypes.so.6:_ZNK10QtProtobuf3Any9asAnyImplEv
libQt6ProtobufWellKnownTypes.so.6:_ZNK6google8protobuf3Any5valueEv
libQt6ProtobufWellKnownTypes.so.6:_ZNK6google8protobuf3Any7typeUrlEv
libQt6ProtobufWellKnownTypes.so.6:_ZNK6google8protobuf3AnyeqERKS1_
libQt6ProtobufWellKnownTypes.so.6:_ZNK6google8protobuf3AnyneERKS1_
